; Function Attrs: mustprogress nofree norecurse nosync nounwind willreturn memory(argmem: read) uwtable
define noundef zeroext i1 @_ZN32pxrInternal_v0_24__pxrReserved__neERKNS_40HdsiLegacyDisplayStyleOverrideSceneIndex11OptionalIntES3_(ptr nocapture noundef nonnull readonly align 4 dereferenceable(8) %0, ptr nocapture noundef nonnull readonly align 4 dereferenceable(8) %1) local_unnamed_addr #5 {
  %3 = load i8, ptr %0, align 4
  %4 = and i8 %3, 1
  %5 = icmp eq i8 %4, 0
  %.pre.i = load i8, ptr %1, align 4
  %6 = and i8 %.pre.i, 1
  %7 = icmp eq i8 %6, 0
  %or.cond.i = select i1 %5, i1 %7, i1 false
  br i1 %or.cond.i, label %_ZN32pxrInternal_v0_24__pxrReserved__eqERKNS_40HdsiLegacyDisplayStyleOverrideSceneIndex11OptionalIntES3_.exit, label %8

8:                                                ; preds = %2
  %9 = xor i8 %.pre.i, %3
  %10 = and i8 %9, 1
  %11 = icmp ne i8 %10, 0
  %12 = getelementptr inbounds nuw i8, ptr %0, i64 4
  %13 = load i32, ptr %12, align 4
  %14 = getelementptr inbounds nuw i8, ptr %1, i64 4
  %15 = load i32, ptr %14, align 4
  %16 = icmp ne i32 %13, %15
  %.not3 = select i1 %11, i1 true, i1 %16
  br label %_ZN32pxrInternal_v0_24__pxrReserved__eqERKNS_40HdsiLegacyDisplayStyleOverrideSceneIndex11OptionalIntES3_.exit

_ZN32pxrInternal_v0_24__pxrReserved__eqERKNS_40HdsiLegacyDisplayStyleOverrideSceneIndex11OptionalIntES3_.exit: ; preds = %2, %8
  %.0.i = phi i1 [ %.not3, %8 ], [ false, %2 ]
  ret i1 %.0.i
}